target datalayout = "e-m:e-p270:32:32-p271:32:32-p272:64:64-i64:64-i128:128-f80:128-n8:16:32:64-S128"
target triple = "x86_64-pc-linux-gnu"

; Function Attrs: mustprogress uwtable
define dso_local noundef zeroext i1 @_ZN5ImGui14SliderBehaviorERK6ImRectjiPvPKvS5_PKciPS0_(ptr noundef nonnull align 4 dereferenceable(16) %0, i32 noundef %1, i32 noundef %2, ptr noundef %3, ptr noundef %4, ptr noundef %5, ptr noundef %6, i32 noundef %7, ptr noundef %8) #8 {
  %10 = alloca i1, align 1
  %11 = alloca ptr, align 8
  %12 = alloca i32, align 4
  %13 = alloca i32, align 4
  %14 = alloca ptr, align 8
  %15 = alloca ptr, align 8
  %16 = alloca ptr, align 8
  %17 = alloca ptr, align 8
  %18 = alloca i32, align 4
  %19 = alloca ptr, align 8
  %20 = alloca i32, align 4
  %21 = alloca i8, align 1
  %22 = alloca i32, align 4
  %23 = alloca i8, align 1
  %24 = alloca i32, align 4
  %25 = alloca i8, align 1
  %26 = alloca i32, align 4
  %27 = alloca i8, align 1
  store ptr %0, ptr %11, align 8, !tbaa !175
  store i32 %1, ptr %12, align 4, !tbaa !9
  store i32 %2, ptr %13, align 4, !tbaa !9
  store ptr %3, ptr %14, align 8, !tbaa !255
  store ptr %4, ptr %15, align 8, !tbaa !255
  store ptr %5, ptr %16, align 8, !tbaa !255
  store ptr %6, ptr %17, align 8, !tbaa !4
  store i32 %7, ptr %18, align 4, !tbaa !9
  store ptr %8, ptr %19, align 8, !tbaa !175
  %28 = load i32, ptr %13, align 4, !tbaa !9
  switch i32 %28, label %211 [
    i32 0, label %29
    i32 1, label %55
    i32 2, label %81
    i32 3, label %107
    i32 4, label %133
    i32 5, label %146
    i32 6, label %159
    i32 7, label %172
    i32 8, label %185
    i32 9, label %198
    i32 11, label %211
  ]

29:                                               ; preds = %9
  call void @llvm.lifetime.start.p0(i64 4, ptr %20) #17
  %30 = load ptr, ptr %14, align 8, !tbaa !255
  %31 = load i8, ptr %30, align 1, !tbaa !380
  %32 = sext i8 %31 to i32
  store i32 %32, ptr %20, align 4, !tbaa !9
  call void @llvm.lifetime.start.p0(i64 1, ptr %21) #17
  %33 = load ptr, ptr %11, align 8, !tbaa !175
  %34 = load i32, ptr %12, align 4, !tbaa !9
  %35 = load ptr, ptr %15, align 8, !tbaa !255
  %36 = load i8, ptr %35, align 1, !tbaa !380
  %37 = sext i8 %36 to i32
  %38 = load ptr, ptr %16, align 8, !tbaa !255
  %39 = load i8, ptr %38, align 1, !tbaa !380
  %40 = sext i8 %39 to i32
  %41 = load ptr, ptr %17, align 8, !tbaa !4
  %42 = load i32, ptr %18, align 4, !tbaa !9
  %43 = load ptr, ptr %19, align 8, !tbaa !175
  %44 = call noundef zeroext i1 @_ZN5ImGui15SliderBehaviorTIiifEEbRK6ImRectjiPT_S4_S4_PKciPS1_(ptr noundef nonnull align 4 dereferenceable(16) %33, i32 noundef %34, i32 noundef 4, ptr noundef %20, i32 noundef %37, i32 noundef %40, ptr noundef %41, i32 noundef %42, ptr noundef %43)
  %45 = zext i1 %44 to i8
  store i8 %45, ptr %21, align 1, !tbaa !67
  %46 = load i8, ptr %21, align 1, !tbaa !67, !range !59, !noundef !60
  %47 = trunc i8 %46 to i1
  br i1 %47, label %48, label %52

48:                                               ; preds = %29
  %49 = load i32, ptr %20, align 4, !tbaa !9
  %50 = trunc i32 %49 to i8
  %51 = load ptr, ptr %14, align 8, !tbaa !255
  store i8 %50, ptr %51, align 1, !tbaa !380
  br label %52

52:                                               ; preds = %48, %29
  %53 = load i8, ptr %21, align 1, !tbaa !67, !range !59, !noundef !60
  %54 = trunc i8 %53 to i1
  store i1 %54, ptr %10, align 1
  call void @llvm.lifetime.end.p0(i64 1, ptr %21) #17
  call void @llvm.lifetime.end.p0(i64 4, ptr %20) #17
  br label %212

55:                                               ; preds = %9
  call void @llvm.lifetime.start.p0(i64 4, ptr %22) #17
  %56 = load ptr, ptr %14, align 8, !tbaa !255
  %57 = load i8, ptr %56, align 1, !tbaa !380
  %58 = zext i8 %57 to i32
  store i32 %58, ptr %22, align 4, !tbaa !9
  call void @llvm.lifetime.start.p0(i64 1, ptr %23) #17
  %59 = load ptr, ptr %11, align 8, !tbaa !175
  %60 = load i32, ptr %12, align 4, !tbaa !9
  %61 = load ptr, ptr %15, align 8, !tbaa !255
  %62 = load i8, ptr %61, align 1, !tbaa !380
  %63 = zext i8 %62 to i32
  %64 = load ptr, ptr %16, align 8, !tbaa !255
  %65 = load i8, ptr %64, align 1, !tbaa !380
  %66 = zext i8 %65 to i32
  %67 = load ptr, ptr %17, align 8, !tbaa !4
  %68 = load i32, ptr %18, align 4, !tbaa !9
  %69 = load ptr, ptr %19, align 8, !tbaa !175
  %70 = call noundef zeroext i1 @_ZN5ImGui15SliderBehaviorTIjifEEbRK6ImRectjiPT_S4_S4_PKciPS1_(ptr noundef nonnull align 4 dereferenceable(16) %59, i32 noundef %60, i32 noundef 5, ptr noundef %22, i32 noundef %63, i32 noundef %66, ptr noundef %67, i32 noundef %68, ptr noundef %69)
  %71 = zext i1 %70 to i8
  store i8 %71, ptr %23, align 1, !tbaa !67
  %72 = load i8, ptr %23, align 1, !tbaa !67, !range !59, !noundef !60
  %73 = trunc i8 %72 to i1
  br i1 %73, label %74, label %78

74:                                               ; preds = %55
  %75 = load i32, ptr %22, align 4, !tbaa !9
  %76 = trunc i32 %75 to i8
  %77 = load ptr, ptr %14, align 8, !tbaa !255
  store i8 %76, ptr %77, align 1, !tbaa !380
  br label %78

78:                                               ; preds = %74, %55
  %79 = load i8, ptr %23, align 1, !tbaa !67, !range !59, !noundef !60
  %80 = trunc i8 %79 to i1
  store i1 %80, ptr %10, align 1
  call void @llvm.lifetime.end.p0(i64 1, ptr %23) #17
  call void @llvm.lifetime.end.p0(i64 4, ptr %22) #17
  br label %212

81:                                               ; preds = %9
  call void @llvm.lifetime.start.p0(i64 4, ptr %24) #17
  %82 = load ptr, ptr %14, align 8, !tbaa !255
  %83 = load i16, ptr %82, align 2, !tbaa !205
  %84 = sext i16 %83 to i32
  store i32 %84, ptr %24, align 4, !tbaa !9
  call void @llvm.lifetime.start.p0(i64 1, ptr %25) #17
  %85 = load ptr, ptr %11, align 8, !tbaa !175
  %86 = load i32, ptr %12, align 4, !tbaa !9
  %87 = load ptr, ptr %15, align 8, !tbaa !255
  %88 = load i16, ptr %87, align 2, !tbaa !205
  %89 = sext i16 %88 to i32
  %90 = load ptr, ptr %16, align 8, !tbaa !255
  %91 = load i16, ptr %90, align 2, !tbaa !205
  %92 = sext i16 %91 to i32
  %93 = load ptr, ptr %17, align 8, !tbaa !4
  %94 = load i32, ptr %18, align 4, !tbaa !9
  %95 = load ptr, ptr %19, align 8, !tbaa !175
  %96 = call noundef zeroext i1 @_ZN5ImGui15SliderBehaviorTIiifEEbRK6ImRectjiPT_S4_S4_PKciPS1_(ptr noundef nonnull align 4 dereferenceable(16) %85, i32 noundef %86, i32 noundef 4, ptr noundef %24, i32 noundef %89, i32 noundef %92, ptr noundef %93, i32 noundef %94, ptr noundef %95)
  %97 = zext i1 %96 to i8
  store i8 %97, ptr %25, align 1, !tbaa !67
  %98 = load i8, ptr %25, align 1, !tbaa !67, !range !59, !noundef !60
  %99 = trunc i8 %98 to i1
  br i1 %99, label %100, label %104

100:                                              ; preds = %81
  %101 = load i32, ptr %24, align 4, !tbaa !9
  %102 = trunc i32 %101 to i16
  %103 = load ptr, ptr %14, align 8, !tbaa !255
  store i16 %102, ptr %103, align 2, !tbaa !205
  br label %104

104:                                              ; preds = %100, %81
  %105 = load i8, ptr %25, align 1, !tbaa !67, !range !59, !noundef !60
  %106 = trunc i8 %105 to i1
  store i1 %106, ptr %10, align 1
  call void @llvm.lifetime.end.p0(i64 1, ptr %25) #17
  call void @llvm.lifetime.end.p0(i64 4, ptr %24) #17
  br label %212

107:                                              ; preds = %9
  call void @llvm.lifetime.start.p0(i64 4, ptr %26) #17
  %108 = load ptr, ptr %14, align 8, !tbaa !255
  %109 = load i16, ptr %108, align 2, !tbaa !205
  %110 = zext i16 %109 to i32
  store i32 %110, ptr %26, align 4, !tbaa !9
  call void @llvm.lifetime.start.p0(i64 1, ptr %27) #17
  %111 = load ptr, ptr %11, align 8, !tbaa !175
  %112 = load i32, ptr %12, align 4, !tbaa !9
  %113 = load ptr, ptr %15, align 8, !tbaa !255
  %114 = load i16, ptr %113, align 2, !tbaa !205
  %115 = zext i16 %114 to i32
  %116 = load ptr, ptr %16, align 8, !tbaa !255
  %117 = load i16, ptr %116, align 2, !tbaa !205
  %118 = zext i16 %117 to i32
  %119 = load ptr, ptr %17, align 8, !tbaa !4
  %120 = load i32, ptr %18, align 4, !tbaa !9
  %121 = load ptr, ptr %19, align 8, !tbaa !175
  %122 = call noundef zeroext i1 @_ZN5ImGui15SliderBehaviorTIjifEEbRK6ImRectjiPT_S4_S4_PKciPS1_(ptr noundef nonnull align 4 dereferenceable(16) %111, i32 noundef %112, i32 noundef 5, ptr noundef %26, i32 noundef %115, i32 noundef %118, ptr noundef %119, i32 noundef %120, ptr noundef %121)
  %123 = zext i1 %122 to i8
  store i8 %123, ptr %27, align 1, !tbaa !67
  %124 = load i8, ptr %27, align 1, !tbaa !67, !range !59, !noundef !60
  %125 = trunc i8 %124 to i1
  br i1 %125, label %126, label %130

126:                                              ; preds = %107
  %127 = load i32, ptr %26, align 4, !tbaa !9
  %128 = trunc i32 %127 to i16
  %129 = load ptr, ptr %14, align 8, !tbaa !255
  store i16 %128, ptr %129, align 2, !tbaa !205
  br label %130

130:                                              ; preds = %126, %107
  %131 = load i8, ptr %27, align 1, !tbaa !67, !range !59, !noundef !60
  %132 = trunc i8 %131 to i1
  store i1 %132, ptr %10, align 1
  call void @llvm.lifetime.end.p0(i64 1, ptr %27) #17
  call void @llvm.lifetime.end.p0(i64 4, ptr %26) #17
  br label %212

133:                                              ; preds = %9
  %134 = load ptr, ptr %11, align 8, !tbaa !175
  %135 = load i32, ptr %12, align 4, !tbaa !9
  %136 = load i32, ptr %13, align 4, !tbaa !9
  %137 = load ptr, ptr %14, align 8, !tbaa !255
  %138 = load ptr, ptr %15, align 8, !tbaa !255
  %139 = load i32, ptr %138, align 4, !tbaa !9
  %140 = load ptr, ptr %16, align 8, !tbaa !255
  %141 = load i32, ptr %140, align 4, !tbaa !9
  %142 = load ptr, ptr %17, align 8, !tbaa !4
  %143 = load i32, ptr %18, align 4, !tbaa !9
  %144 = load ptr, ptr %19, align 8, !tbaa !175
  %145 = call noundef zeroext i1 @_ZN5ImGui15SliderBehaviorTIiifEEbRK6ImRectjiPT_S4_S4_PKciPS1_(ptr noundef nonnull align 4 dereferenceable(16) %134, i32 noundef %135, i32 noundef %136, ptr noundef %137, i32 noundef %139, i32 noundef %141, ptr noundef %142, i32 noundef %143, ptr noundef %144)
  store i1 %145, ptr %10, align 1
  br label %212

146:                                              ; preds = %9
  %147 = load ptr, ptr %11, align 8, !tbaa !175
  %148 = load i32, ptr %12, align 4, !tbaa !9
  %149 = load i32, ptr %13, align 4, !tbaa !9
  %150 = load ptr, ptr %14, align 8, !tbaa !255
  %151 = load ptr, ptr %15, align 8, !tbaa !255
  %152 = load i32, ptr %151, align 4, !tbaa !9
  %153 = load ptr, ptr %16, align 8, !tbaa !255
  %154 = load i32, ptr %153, align 4, !tbaa !9
  %155 = load ptr, ptr %17, align 8, !tbaa !4
  %156 = load i32, ptr %18, align 4, !tbaa !9
  %157 = load ptr, ptr %19, align 8, !tbaa !175
  %158 = call noundef zeroext i1 @_ZN5ImGui15SliderBehaviorTIjifEEbRK6ImRectjiPT_S4_S4_PKciPS1_(ptr noundef nonnull align 4 dereferenceable(16) %147, i32 noundef %148, i32 noundef %149, ptr noundef %150, i32 noundef %152, i32 noundef %154, ptr noundef %155, i32 noundef %156, ptr noundef %157)
  store i1 %158, ptr %10, align 1
  br label %212

159:                                              ; preds = %9
  %160 = load ptr, ptr %11, align 8, !tbaa !175
  %161 = load i32, ptr %12, align 4, !tbaa !9
  %162 = load i32, ptr %13, align 4, !tbaa !9
  %163 = load ptr, ptr %14, align 8, !tbaa !255
  %164 = load ptr, ptr %15, align 8, !tbaa !255
  %165 = load i64, ptr %164, align 8, !tbaa !246
  %166 = load ptr, ptr %16, align 8, !tbaa !255
  %167 = load i64, ptr %166, align 8, !tbaa !246
  %168 = load ptr, ptr %17, align 8, !tbaa !4
  %169 = load i32, ptr %18, align 4, !tbaa !9
  %170 = load ptr, ptr %19, align 8, !tbaa !175
  %171 = call noundef zeroext i1 @_ZN5ImGui15SliderBehaviorTIxxdEEbRK6ImRectjiPT_S4_S4_PKciPS1_(ptr noundef nonnull align 4 dereferenceable(16) %160, i32 noundef %161, i32 noundef %162, ptr noundef %163, i64 noundef %165, i64 noundef %167, ptr noundef %168, i32 noundef %169, ptr noundef %170)
  store i1 %171, ptr %10, align 1
  br label %212

172:                                              ; preds = %9
  %173 = load ptr, ptr %11, align 8, !tbaa !175
  %174 = load i32, ptr %12, align 4, !tbaa !9
  %175 = load i32, ptr %13, align 4, !tbaa !9
  %176 = load ptr, ptr %14, align 8, !tbaa !255
  %177 = load ptr, ptr %15, align 8, !tbaa !255
  %178 = load i64, ptr %177, align 8, !tbaa !246
  %179 = load ptr, ptr %16, align 8, !tbaa !255
  %180 = load i64, ptr %179, align 8, !tbaa !246
  %181 = load ptr, ptr %17, align 8, !tbaa !4
  %182 = load i32, ptr %18, align 4, !tbaa !9
  %183 = load ptr, ptr %19, align 8, !tbaa !175
  %184 = call noundef zeroext i1 @_ZN5ImGui15SliderBehaviorTIyxdEEbRK6ImRectjiPT_S4_S4_PKciPS1_(ptr noundef nonnull align 4 dereferenceable(16) %173, i32 noundef %174, i32 noundef %175, ptr noundef %176, i64 noundef %178, i64 noundef %180, ptr noundef %181, i32 noundef %182, ptr noundef %183)
  store i1 %184, ptr %10, align 1
  br label %212

185:                                              ; preds = %9
  %186 = load ptr, ptr %11, align 8, !tbaa !175
  %187 = load i32, ptr %12, align 4, !tbaa !9
  %188 = load i32, ptr %13, align 4, !tbaa !9
  %189 = load ptr, ptr %14, align 8, !tbaa !255
  %190 = load ptr, ptr %15, align 8, !tbaa !255
  %191 = load float, ptr %190, align 4, !tbaa !66
  %192 = load ptr, ptr %16, align 8, !tbaa !255
  %193 = load float, ptr %192, align 4, !tbaa !66
  %194 = load ptr, ptr %17, align 8, !tbaa !4
  %195 = load i32, ptr %18, align 4, !tbaa !9
  %196 = load ptr, ptr %19, align 8, !tbaa !175
  %197 = call noundef zeroext i1 @_ZN5ImGui15SliderBehaviorTIfffEEbRK6ImRectjiPT_S4_S4_PKciPS1_(ptr noundef nonnull align 4 dereferenceable(16) %186, i32 noundef %187, i32 noundef %188, ptr noundef %189, float noundef %191, float noundef %193, ptr noundef %194, i32 noundef %195, ptr noundef %196)
  store i1 %197, ptr %10, align 1
  br label %212

198:                                              ; preds = %9
  %199 = load ptr, ptr %11, align 8, !tbaa !175
  %200 = load i32, ptr %12, align 4, !tbaa !9
  %201 = load i32, ptr %13, align 4, !tbaa !9
  %202 = load ptr, ptr %14, align 8, !tbaa !255
  %203 = load ptr, ptr %15, align 8, !tbaa !255
  %204 = load double, ptr %203, align 8, !tbaa !383
  %205 = load ptr, ptr %16, align 8, !tbaa !255
  %206 = load double, ptr %205, align 8, !tbaa !383
  %207 = load ptr, ptr %17, align 8, !tbaa !4
  %208 = load i32, ptr %18, align 4, !tbaa !9
  %209 = load ptr, ptr %19, align 8, !tbaa !175
  %210 = call noundef zeroext i1 @_ZN5ImGui15SliderBehaviorTIdddEEbRK6ImRectjiPT_S4_S4_PKciPS1_(ptr noundef nonnull align 4 dereferenceable(16) %199, i32 noundef %200, i32 noundef %201, ptr noundef %202, double noundef %204, double noundef %206, ptr noundef %207, i32 noundef %208, ptr noundef %209)
  store i1 %210, ptr %10, align 1
  br label %212

211:                                              ; preds = %9, %9
  store i1 false, ptr %10, align 1
  br label %212

212:                                              ; preds = %211, %198, %185, %172, %159, %146, %133, %130, %104, %78, %52
  %213 = load i1, ptr %10, align 1
  ret i1 %213
}