; Function Attrs: mustprogress uwtable
define dso_local noundef zeroext i1 @_ZN5ImGui14SliderBehaviorERK6ImRectjiPvPKvS5_PKciPS0_(ptr noundef nonnull align 4 dereferenceable(16) %0, i32 noundef %1, i32 noundef %2, ptr noundef %3, ptr noundef readonly captures(none) %4, ptr noundef readonly captures(none) %5, ptr noundef %6, i32 noundef %7, ptr noundef %8) local_unnamed_addr #5 {
  %10 = alloca i32, align 4
  %11 = alloca i32, align 4
  %12 = alloca i32, align 4
  %13 = alloca i32, align 4
  switch i32 %2, label %86 [
    i32 0, label %14
    i32 1, label %26
    i32 2, label %38
    i32 3, label %50
    i32 4, label %62
    i32 5, label %66
    i32 6, label %70
    i32 7, label %74
    i32 8, label %78
    i32 9, label %82
  ]

14:                                               ; preds = %9
  call void @llvm.lifetime.start.p0(i64 4, ptr nonnull %10) #43
  %15 = load i8, ptr %3, align 1, !tbaa !338
  %16 = sext i8 %15 to i32
  store i32 %16, ptr %10, align 4, !tbaa !176
  %17 = load i8, ptr %4, align 1, !tbaa !338
  %18 = sext i8 %17 to i32
  %19 = load i8, ptr %5, align 1, !tbaa !338
  %20 = sext i8 %19 to i32
  %21 = call noundef zeroext i1 @_ZN5ImGui15SliderBehaviorTIiifEEbRK6ImRectjiPT_S4_S4_PKciPS1_(ptr noundef nonnull align 4 dereferenceable(16) %0, i32 noundef %1, i32 noundef 4, ptr noundef nonnull %10, i32 noundef %18, i32 noundef %20, ptr noundef %6, i32 noundef %7, ptr noundef %8)
  br i1 %21, label %22, label %25

22:                                               ; preds = %14
  %23 = load i32, ptr %10, align 4, !tbaa !176
  %24 = trunc i32 %23 to i8
  store i8 %24, ptr %3, align 1, !tbaa !338
  br label %25

25:                                               ; preds = %22, %14
  call void @llvm.lifetime.end.p0(i64 4, ptr nonnull %10) #43
  br label %86

26:                                               ; preds = %9
  call void @llvm.lifetime.start.p0(i64 4, ptr nonnull %11) #43
  %27 = load i8, ptr %3, align 1, !tbaa !338
  %28 = zext i8 %27 to i32
  store i32 %28, ptr %11, align 4, !tbaa !176
  %29 = load i8, ptr %4, align 1, !tbaa !338
  %30 = zext i8 %29 to i32
  %31 = load i8, ptr %5, align 1, !tbaa !338
  %32 = zext i8 %31 to i32
  %33 = call noundef zeroext i1 @_ZN5ImGui15SliderBehaviorTIjifEEbRK6ImRectjiPT_S4_S4_PKciPS1_(ptr noundef nonnull align 4 dereferenceable(16) %0, i32 noundef %1, i32 noundef 5, ptr noundef nonnull %11, i32 noundef %30, i32 noundef %32, ptr noundef %6, i32 noundef %7, ptr noundef %8)
  br i1 %33, label %34, label %37

34:                                               ; preds = %26
  %35 = load i32, ptr %11, align 4, !tbaa !176
  %36 = trunc i32 %35 to i8
  store i8 %36, ptr %3, align 1, !tbaa !338
  br label %37

37:                                               ; preds = %34, %26
  call void @llvm.lifetime.end.p0(i64 4, ptr nonnull %11) #43
  br label %86

38:                                               ; preds = %9
  call void @llvm.lifetime.start.p0(i64 4, ptr nonnull %12) #43
  %39 = load i16, ptr %3, align 2, !tbaa !189
  %40 = sext i16 %39 to i32
  store i32 %40, ptr %12, align 4, !tbaa !176
  %41 = load i16, ptr %4, align 2, !tbaa !189
  %42 = sext i16 %41 to i32
  %43 = load i16, ptr %5, align 2, !tbaa !189
  %44 = sext i16 %43 to i32
  %45 = call noundef zeroext i1 @_ZN5ImGui15SliderBehaviorTIiifEEbRK6ImRectjiPT_S4_S4_PKciPS1_(ptr noundef nonnull align 4 dereferenceable(16) %0, i32 noundef %1, i32 noundef 4, ptr noundef nonnull %12, i32 noundef %42, i32 noundef %44, ptr noundef %6, i32 noundef %7, ptr noundef %8)
  br i1 %45, label %46, label %49

46:                                               ; preds = %38
  %47 = load i32, ptr %12, align 4, !tbaa !176
  %48 = trunc i32 %47 to i16
  store i16 %48, ptr %3, align 2, !tbaa !189
  br label %49

49:                                               ; preds = %46, %38
  call void @llvm.lifetime.end.p0(i64 4, ptr nonnull %12) #43
  br label %86

50:                                               ; preds = %9
  call void @llvm.lifetime.start.p0(i64 4, ptr nonnull %13) #43
  %51 = load i16, ptr %3, align 2, !tbaa !189
  %52 = zext i16 %51 to i32
  store i32 %52, ptr %13, align 4, !tbaa !176
  %53 = load i16, ptr %4, align 2, !tbaa !189
  %54 = zext i16 %53 to i32
  %55 = load i16, ptr %5, align 2, !tbaa !189
  %56 = zext i16 %55 to i32
  %57 = call noundef zeroext i1 @_ZN5ImGui15SliderBehaviorTIjifEEbRK6ImRectjiPT_S4_S4_PKciPS1_(ptr noundef nonnull align 4 dereferenceable(16) %0, i32 noundef %1, i32 noundef 5, ptr noundef nonnull %13, i32 noundef %54, i32 noundef %56, ptr noundef %6, i32 noundef %7, ptr noundef %8)
  br i1 %57, label %58, label %61

58:                                               ; preds = %50
  %59 = load i32, ptr %13, align 4, !tbaa !176
  %60 = trunc i32 %59 to i16
  store i16 %60, ptr %3, align 2, !tbaa !189
  br label %61

61:                                               ; preds = %58, %50
  call void @llvm.lifetime.end.p0(i64 4, ptr nonnull %13) #43
  br label %86

62:                                               ; preds = %9
  %63 = load i32, ptr %4, align 4, !tbaa !176
  %64 = load i32, ptr %5, align 4, !tbaa !176
  %65 = tail call noundef zeroext i1 @_ZN5ImGui15SliderBehaviorTIiifEEbRK6ImRectjiPT_S4_S4_PKciPS1_(ptr noundef nonnull align 4 dereferenceable(16) %0, i32 noundef %1, i32 noundef 4, ptr noundef %3, i32 noundef %63, i32 noundef %64, ptr noundef %6, i32 noundef %7, ptr noundef %8)
  br label %86

66:                                               ; preds = %9
  %67 = load i32, ptr %4, align 4, !tbaa !176
  %68 = load i32, ptr %5, align 4, !tbaa !176
  %69 = tail call noundef zeroext i1 @_ZN5ImGui15SliderBehaviorTIjifEEbRK6ImRectjiPT_S4_S4_PKciPS1_(ptr noundef nonnull align 4 dereferenceable(16) %0, i32 noundef %1, i32 noundef 5, ptr noundef %3, i32 noundef %67, i32 noundef %68, ptr noundef %6, i32 noundef %7, ptr noundef %8)
  br label %86

70:                                               ; preds = %9
  %71 = load i64, ptr %4, align 8, !tbaa !224
  %72 = load i64, ptr %5, align 8, !tbaa !224
  %73 = tail call noundef zeroext i1 @_ZN5ImGui15SliderBehaviorTIxxdEEbRK6ImRectjiPT_S4_S4_PKciPS1_(ptr noundef nonnull align 4 dereferenceable(16) %0, i32 noundef %1, i32 noundef 6, ptr noundef %3, i64 noundef %71, i64 noundef %72, ptr noundef %6, i32 noundef %7, ptr noundef %8)
  br label %86

74:                                               ; preds = %9
  %75 = load i64, ptr %4, align 8, !tbaa !224
  %76 = load i64, ptr %5, align 8, !tbaa !224
  %77 = tail call noundef zeroext i1 @_ZN5ImGui15SliderBehaviorTIyxdEEbRK6ImRectjiPT_S4_S4_PKciPS1_(ptr noundef nonnull align 4 dereferenceable(16) %0, i32 noundef %1, i32 noundef 7, ptr noundef %3, i64 noundef %75, i64 noundef %76, ptr noundef %6, i32 noundef %7, ptr noundef %8)
  br label %86

78:                                               ; preds = %9
  %79 = load float, ptr %4, align 4, !tbaa !190
  %80 = load float, ptr %5, align 4, !tbaa !190
  %81 = tail call noundef zeroext i1 @_ZN5ImGui15SliderBehaviorTIfffEEbRK6ImRectjiPT_S4_S4_PKciPS1_(ptr noundef nonnull align 4 dereferenceable(16) %0, i32 noundef %1, i32 noundef 8, ptr noundef %3, float noundef %79, float noundef %80, ptr noundef %6, i32 noundef %7, ptr noundef %8)
  br label %86

82:                                               ; preds = %9
  %83 = load double, ptr %4, align 8, !tbaa !341
  %84 = load double, ptr %5, align 8, !tbaa !341
  %85 = tail call noundef zeroext i1 @_ZN5ImGui15SliderBehaviorTIdddEEbRK6ImRectjiPT_S4_S4_PKciPS1_(ptr noundef nonnull align 4 dereferenceable(16) %0, i32 noundef %1, i32 noundef 9, ptr noundef %3, double noundef %83, double noundef %84, ptr noundef %6, i32 noundef %7, ptr noundef %8)
  br label %86

86:                                               ; preds = %9, %82, %78, %74, %70, %66, %62, %61, %49, %37, %25
  %.0 = phi i1 [ %85, %82 ], [ %81, %78 ], [ %77, %74 ], [ %73, %70 ], [ %69, %66 ], [ %65, %62 ], [ %57, %61 ], [ %45, %49 ], [ %33, %37 ], [ %21, %25 ], [ false, %9 ]
  ret i1 %.0
}